target datalayout = "e-m:e-p270:32:32-p271:32:32-p272:64:64-i64:64-i128:128-f80:128-n8:16:32:64-S128"
target triple = "x86_64-pc-linux-gnu"

%struct.b2Vec2 = type { float, float }
%struct.b2AABB = type { %struct.b2Vec2, %struct.b2Vec2 }
%struct.b2BodyId = type { i32, i16, i16 }
%class.Sample = type { ptr, ptr, ptr, ptr, i32, i32, %struct.b2BodyId, i32, %struct.b2WorldId, %struct.b2JointId, i32, i32, %struct.b2Profile, %struct.b2Profile }
%struct.b2WorldId = type { i16, i16 }
%struct.b2JointId = type { i32, i16, i16 }
%struct.b2Profile = type { float, float, float, float, float, float, float, float, float, float, float, float, float, float, float, float, float, float, float, float, float, float }
%class.DynamicTree = type <{ %class.Sample, %struct.b2DynamicTree, i32, i32, ptr, ptr, i32, i32, i32, i32, i32, float, float, float, float, float, %struct.b2Vec2, %struct.b2Vec2, i8, i8, i8, [5 x i8] }>
%struct.b2DynamicTree = type { ptr, i32, i32, i32, i32, i32, ptr, ptr, ptr, ptr, i32 }
%struct.Proxy = type { %struct.b2AABB, %struct.b2AABB, %struct.b2Vec2, %struct.b2Vec2, i32, i32, i32, i8 }

; Function Attrs: mustprogress nounwind uwtable
define internal noundef zeroext i1 @_ZL13QueryCallbackiiPv(i32 noundef %0, i32 noundef %1, ptr noundef %2) #7 {
  %4 = alloca i32, align 4
  %5 = alloca i32, align 4
  %6 = alloca ptr, align 8
  %7 = alloca ptr, align 8
  %8 = alloca ptr, align 8
  store i32 %0, ptr %4, align 4, !tbaa !4
  store i32 %1, ptr %5, align 4, !tbaa !4
  store ptr %2, ptr %6, align 8, !tbaa !178
  call void @llvm.lifetime.start.p0(i64 8, ptr %7) #21
  %9 = load ptr, ptr %6, align 8, !tbaa !178
  store ptr %9, ptr %7, align 8, !tbaa !120
  call void @llvm.lifetime.start.p0(i64 8, ptr %8) #21
  %10 = load ptr, ptr %7, align 8, !tbaa !120
  %11 = getelementptr inbounds nuw %class.DynamicTree, ptr %10, i32 0, i32 4
  %12 = load ptr, ptr %11, align 8, !tbaa !131
  %13 = load i32, ptr %5, align 4, !tbaa !4
  %14 = sext i32 %13 to i64
  %15 = getelementptr inbounds %struct.Proxy, ptr %12, i64 %14
  store ptr %15, ptr %8, align 8, !tbaa !149
  %16 = load ptr, ptr %7, align 8, !tbaa !120
  %17 = getelementptr inbounds nuw %class.DynamicTree, ptr %16, i32 0, i32 9
  %18 = load i32, ptr %17, align 4, !tbaa !140
  %19 = load ptr, ptr %8, align 8, !tbaa !149
  %20 = getelementptr inbounds nuw %struct.Proxy, ptr %19, i32 0, i32 6
  store i32 %18, ptr %20, align 4, !tbaa !156
  call void @llvm.lifetime.end.p0(i64 8, ptr %8) #21
  call void @llvm.lifetime.end.p0(i64 8, ptr %7) #21
  ret i1 true
}