; Function Attrs: mustprogress nofree norecurse nosync nounwind willreturn memory(write, argmem: readwrite, inaccessiblemem: none) uwtable
define internal noundef zeroext i1 @_ZL13QueryCallbackiiPv(i32 %0, i32 noundef %1, ptr noundef readonly captures(none) %2) #15 {
  %4 = getelementptr inbounds nuw i8, ptr %2, i64 328
  %5 = load ptr, ptr %4, align 8, !tbaa !39
  %6 = sext i32 %1 to i64
  %7 = getelementptr inbounds nuw i8, ptr %2, i64 356
  %8 = load i32, ptr %7, align 4, !tbaa !48
  %9 = getelementptr inbounds %struct.Proxy, ptr %5, i64 %6, i32 6
  store i32 %8, ptr %9, align 4, !tbaa !158
  ret i1 true
}